; Function Attrs: mustprogress uwtable
define void @_ZN8proxygen15HTTPTransaction9sendAbortEv(ptr noundef nonnull align 8 dereferenceable(912) %this) unnamed_addr #3 align 2 {
entry:
  %direction_.i = getelementptr inbounds i8, ptr %this, i64 240
  %0 = load i8, ptr %direction_.i, align 8
  %cmp.i = icmp eq i8 %0, 1
  %cond = select i1 %cmp.i, i8 8, i8 2
  tail call void @_ZN8proxygen15HTTPTransaction9sendAbortENS_9ErrorCodeE(ptr noundef nonnull align 8 dereferenceable(912) %this, i8 noundef zeroext %cond)
  ret void
}